; ModuleID = '20/517.c'
source_filename = "20/517.c"
target datalayout = "e-m:e-p270:32:32-p271:32:32-p272:64:64-i64:64-f80:128-n8:16:32:64-S128"
target triple = "x86_64-pc-linux-gnu"

@.str = private unnamed_addr constant [1 x i8] zeroinitializer, align 1
@.str.1 = private unnamed_addr constant [4 x i8] c"%s\0A\00", align 1
@.str.2 = private unnamed_addr constant [7 x i8] c"%s %s\0A\00", align 1

; Function Attrs: noinline nounwind uwtable
define dso_local void @insert(i8* %0, i8* %1) #0 {
  %3 = alloca i8*, align 8
  %4 = alloca i8*, align 8
  %5 = alloca i32, align 4
  %6 = alloca i32, align 4
  %7 = alloca i32, align 4
  %8 = alloca i8*, align 8
  %9 = alloca [20 x i8], align 16
  store i8* %0, i8** %3, align 8
  store i8* %1, i8** %4, align 8
  %10 = load i8*, i8** %3, align 8
  store i8* %10, i8** %8, align 8
  store i32 0, i32* %5, align 4
  store i32 1, i32* %6, align 4
  br label %11

11:                                               ; preds = %36, %2
  %12 = load i8*, i8** %8, align 8
  %13 = load i32, i32* %6, align 4
  %14 = sext i32 %13 to i64
  %15 = getelementptr inbounds i8, i8* %12, i64 %14
  %16 = load i8, i8* %15, align 1
  %17 = icmp ne i8 %16, 0
  br i1 %17, label %18, label %39

18:                                               ; preds = %11
  %19 = load i8*, i8** %8, align 8
  %20 = load i32, i32* %6, align 4
  %21 = sext i32 %20 to i64
  %22 = getelementptr inbounds i8, i8* %19, i64 %21
  %23 = load i8, i8* %22, align 1
  %24 = sext i8 %23 to i32
  %25 = load i32, i32* %5, align 4
  %26 = icmp sgt i32 %24, %25
  br i1 %26, label %27, label %35

27:                                               ; preds = %18
  %28 = load i8*, i8** %8, align 8
  %29 = load i32, i32* %6, align 4
  %30 = sext i32 %29 to i64
  %31 = getelementptr inbounds i8, i8* %28, i64 %30
  %32 = load i8, i8* %31, align 1
  %33 = sext i8 %32 to i32
  store i32 %33, i32* %5, align 4
  %34 = load i32, i32* %6, align 4
  store i32 %34, i32* %7, align 4
  br label %35

35:                                               ; preds = %27, %18
  br label %36

36:                                               ; preds = %35
  %37 = load i32, i32* %6, align 4
  %38 = add nsw i32 %37, 1
  store i32 %38, i32* %6, align 4
  br label %11

39:                                               ; preds = %11
  %40 = getelementptr inbounds [20 x i8], [20 x i8]* %9, i64 0, i64 0
  %41 = call i8* @strcpy(i8* %40, i8* getelementptr inbounds ([1 x i8], [1 x i8]* @.str, i64 0, i64 0)) #3
  %42 = getelementptr inbounds [20 x i8], [20 x i8]* %9, i64 0, i64 0
  %43 = load i8*, i8** %3, align 8
  %44 = load i32, i32* %7, align 4
  %45 = add nsw i32 %44, 1
  %46 = sext i32 %45 to i64
  %47 = call i8* @strncat(i8* %42, i8* %43, i64 %46) #3
  %48 = getelementptr inbounds [20 x i8], [20 x i8]* %9, i64 0, i64 0
  %49 = load i8*, i8** %4, align 8
  %50 = call i8* @strcat(i8* %48, i8* %49) #3
  %51 = getelementptr inbounds [20 x i8], [20 x i8]* %9, i64 0, i64 0
  %52 = load i8*, i8** %3, align 8
  %53 = load i32, i32* %7, align 4
  %54 = sext i32 %53 to i64
  %55 = getelementptr inbounds i8, i8* %52, i64 %54
  %56 = getelementptr inbounds i8, i8* %55, i64 1
  %57 = call i8* @strcat(i8* %51, i8* %56) #3
  %58 = getelementptr inbounds [20 x i8], [20 x i8]* %9, i64 0, i64 0
  %59 = call i32 (i8*, ...) @printf(i8* getelementptr inbounds ([4 x i8], [4 x i8]* @.str.1, i64 0, i64 0), i8* %58)
  ret void
}

; Function Attrs: nounwind
declare dso_local i8* @strcpy(i8*, i8*) #1

; Function Attrs: nounwind
declare dso_local i8* @strncat(i8*, i8*, i64) #1

; Function Attrs: nounwind
declare dso_local i8* @strcat(i8*, i8*) #1

declare dso_local i32 @printf(i8*, ...) #2

; Function Attrs: noinline nounwind uwtable
define dso_local void @main() #0 {
  %1 = alloca [20 x i8], align 16
  %2 = alloca [10 x i8], align 1
  br label %3

3:                                                ; preds = %8, %0
  %4 = getelementptr inbounds [20 x i8], [20 x i8]* %1, i64 0, i64 0
  %5 = getelementptr inbounds [10 x i8], [10 x i8]* %2, i64 0, i64 0
  %6 = call i32 (i8*, ...) @__isoc99_scanf(i8* getelementptr inbounds ([7 x i8], [7 x i8]* @.str.2, i64 0, i64 0), i8* %4, i8* %5)
  %7 = icmp ne i32 %6, -1
  br i1 %7, label %8, label %11

8:                                                ; preds = %3
  %9 = getelementptr inbounds [20 x i8], [20 x i8]* %1, i64 0, i64 0
  %10 = getelementptr inbounds [10 x i8], [10 x i8]* %2, i64 0, i64 0
  call void @insert(i8* %9, i8* %10)
  br label %3

11:                                               ; preds = %3
  ret void
}

declare dso_local i32 @__isoc99_scanf(i8*, ...) #2


!llvm.module.flags = !{!0}
!llvm.ident = !{!1}

!0 = !{i32 1, !"wchar_size", i32 4}
!1 = !{!"clang version 10.0.0-4ubuntu1 "}
